; Function Attrs: mustprogress uwtable
define void @_ZN32pxrInternal_v0_24__pxrReserved__25UsdImagingDrawModeAdapter18MarkTransformDirtyERKNS_7UsdPrimERKNS_7SdfPathEPNS_20UsdImagingIndexProxyE(ptr nonnull readnone align 8 captures(none) %0, ptr nonnull readnone align 8 captures(none) %1, ptr noundef nonnull align 4 dereferenceable(8) %2, ptr noundef %3) unnamed_addr #0 align 2 {
  %5 = tail call noundef zeroext i1 @_ZNK32pxrInternal_v0_24__pxrReserved__25UsdImagingDrawModeAdapter15_IsMaterialPathERKNS_7SdfPathE(ptr nonnull align 8 poison, ptr noundef nonnull align 4 dereferenceable(8) %2)
  br i1 %5, label %7, label %6

6:                                                ; preds = %4
  tail call void @_ZN32pxrInternal_v0_24__pxrReserved__20UsdImagingIndexProxy14MarkRprimDirtyERKNS_7SdfPathEj(ptr noundef nonnull align 8 dereferenceable(184) %3, ptr noundef nonnull align 4 dereferenceable(8) %2, i32 noundef 512)
  br label %7

7:                                                ; preds = %6, %4
  ret void
}